; Function Attrs: nounwind uwtable
define hidden i64 @SDL_TellIO_REAL(ptr noundef readonly captures(address_is_null) %0) local_unnamed_addr #0 {
  %.not.i = icmp eq ptr %0, null
  br i1 %.not.i, label %2, label %4

2:                                                ; preds = %1
  %3 = tail call zeroext i1 (ptr, ...) @SDL_SetError_REAL(ptr noundef nonnull @.str.2, ptr noundef nonnull @.str.11) #18
  br label %SDL_SeekIO_REAL.exit

4:                                                ; preds = %1
  %5 = getelementptr inbounds nuw i8, ptr %0, i64 16
  %6 = load ptr, ptr %5, align 8
  %.not8.i = icmp eq ptr %6, null
  br i1 %.not8.i, label %7, label %9

7:                                                ; preds = %4
  %8 = tail call zeroext i1 (ptr, ...) @SDL_SetError_REAL(ptr noundef nonnull @.str.18) #18
  br label %SDL_SeekIO_REAL.exit

9:                                                ; preds = %4
  %10 = getelementptr inbounds nuw i8, ptr %0, i64 56
  %11 = load ptr, ptr %10, align 8
  %12 = tail call i64 %6(ptr noundef %11, i64 noundef 0, i32 noundef 1) #18
  br label %SDL_SeekIO_REAL.exit

SDL_SeekIO_REAL.exit:                             ; preds = %2, %7, %9
  %.0.i = phi i64 [ %12, %9 ], [ -1, %7 ], [ -1, %2 ]
  ret i64 %.0.i
}